(dp0
S'A'
p1
(dp2
g1
I4
sS'C'
p3
I0
sS'B'
p4
I-2
sS'E'
p5
I-1
sS'D'
p6
I-2
sS'G'
p7
I0
sS'F'
p8
I-2
sS'I'
p9
I-1
sS'H'
p10
I-2
sS'K'
p11
I-1
sS'M'
p12
I-1
sS'L'
p13
I-1
sS'N'
p14
I-2
sS'Q'
p15
I-1
sS'P'
p16
I-1
sS'S'
p17
I1
sS'R'
p18
I-1
sS'T'
p19
I0
sS'W'
p20
I-3
sS'V'
p21
I0
sS'Y'
p22
I-2
sS'X'
p23
I0
sS'Z'
p24
I-1
ssg3
(dp25
g1
I0
sg3
I9
sg4
I-3
sg5
I-4
sg6
I-3
sg7
I-3
sg8
I-2
sg9
I-1
sg10
I-3
sg11
I-3
sg12
I-1
sg13
I-1
sg14
I-3
sg15
I-3
sg16
I-3
sg17
I-1
sg18
I-3
sg19
I-1
sg20
I-2
sg21
I-1
sg22
I-2
sg23
I-2
sg24
I-3
ssg4
(dp26
g1
I-2
sg3
I-3
sg4
I4
sg5
I1
sg6
I4
sg7
I-1
sg8
I-3
sg9
I-3
sg10
I0
sg11
I0
sg12
I-3
sg13
I-4
sg14
I3
sg15
I0
sg16
I-2
sg17
I0
sg18
I-1
sg19
I-1
sg20
I-4
sg21
I-3
sg22
I-3
sg23
I-1
sg24
I1
ssg5
(dp27
g1
I-1
sg3
I-4
sg4
I1
sg5
I5
sg6
I2
sg7
I-2
sg8
I-3
sg9
I-3
sg10
I0
sg11
I1
sg12
I-2
sg13
I-3
sg14
I0
sg15
I2
sg16
I-1
sg17
I0
sg18
I0
sg19
I-1
sg20
I-3
sg21
I-2
sg22
I-2
sg23
I-1
sg24
I4
ssg6
(dp28
g1
I-2
sg3
I-3
sg4
I4
sg5
I2
sg6
I6
sg7
I-1
sg8
I-3
sg9
I-3
sg10
I-1
sg11
I-1
sg12
I-3
sg13
I-4
sg14
I1
sg15
I0
sg16
I-1
sg17
I0
sg18
I-2
sg19
I-1
sg20
I-4
sg21
I-3
sg22
I-3
sg23
I-1
sg24
I1
ssg7
(dp29
g1
I0
sg3
I-3
sg4
I-1
sg5
I-2
sg6
I-1
sg7
I6
sg8
I-3
sg9
I-4
sg10
I-2
sg11
I-2
sg12
I-3
sg13
I-4
sg14
I0
sg15
I-2
sg16
I-2
sg17
I0
sg18
I-2
sg19
I-2
sg20
I-2
sg21
I-3
sg22
I-3
sg23
I-1
sg24
I-2
ssg8
(dp30
g1
I-2
sg3
I-2
sg4
I-3
sg5
I-3
sg6
I-3
sg7
I-3
sg8
I6
sg9
I0
sg10
I-1
sg11
I-3
sg12
I0
sg13
I0
sg14
I-3
sg15
I-3
sg16
I-4
sg17
I-2
sg18
I-3
sg19
I-2
sg20
I1
sg21
I-1
sg22
I3
sg23
I-1
sg24
I-3
ssg9
(dp31
g1
I-1
sg3
I-1
sg4
I-3
sg5
I-3
sg6
I-3
sg7
I-4
sg8
I0
sg9
I4
sg10
I-3
sg11
I-3
sg12
I1
sg13
I2
sg14
I-3
sg15
I-3
sg16
I-3
sg17
I-2
sg18
I-3
sg19
I-1
sg20
I-3
sg21
I3
sg22
I-1
sg23
I-1
sg24
I-3
ssg10
(dp32
g1
I-2
sg3
I-3
sg4
I0
sg5
I0
sg6
I-1
sg7
I-2
sg8
I-1
sg9
I-3
sg10
I8
sg11
I-1
sg12
I-2
sg13
I-3
sg14
I1
sg15
I0
sg16
I-2
sg17
I-1
sg18
I0
sg19
I-2
sg20
I-2
sg21
I-3
sg22
I2
sg23
I-1
sg24
I0
ssg11
(dp33
g1
I-1
sg3
I-3
sg4
I0
sg5
I1
sg6
I-1
sg7
I-2
sg8
I-3
sg9
I-3
sg10
I-1
sg11
I5
sg12
I-1
sg13
I-2
sg14
I0
sg15
I1
sg16
I-1
sg17
I0
sg18
I2
sg19
I-1
sg20
I-3
sg21
I-2
sg22
I-2
sg23
I-1
sg24
I1
ssg12
(dp34
g1
I-1
sg3
I-1
sg4
I-3
sg5
I-2
sg6
I-3
sg7
I-3
sg8
I0
sg9
I1
sg10
I-2
sg11
I-1
sg12
I5
sg13
I2
sg14
I-2
sg15
I0
sg16
I-2
sg17
I-1
sg18
I-1
sg19
I-1
sg20
I-1
sg21
I1
sg22
I-1
sg23
I-1
sg24
I-1
ssg13
(dp35
g1
I-1
sg3
I-1
sg4
I-4
sg5
I-3
sg6
I-4
sg7
I-4
sg8
I0
sg9
I2
sg10
I-3
sg11
I-2
sg12
I2
sg13
I4
sg14
I-3
sg15
I-2
sg16
I-3
sg17
I-2
sg18
I-2
sg19
I-1
sg20
I-2
sg21
I1
sg22
I-1
sg23
I-1
sg24
I-3
ssg14
(dp36
g1
I-2
sg3
I-3
sg4
I3
sg5
I0
sg6
I1
sg7
I0
sg8
I-3
sg9
I-3
sg10
I1
sg11
I0
sg12
I-2
sg13
I-3
sg14
I6
sg15
I0
sg16
I-2
sg17
I1
sg18
I0
sg19
I0
sg20
I-4
sg21
I-3
sg22
I-2
sg23
I-1
sg24
I0
ssg15
(dp37
g1
I-1
sg3
I-3
sg4
I0
sg5
I2
sg6
I0
sg7
I-2
sg8
I-3
sg9
I-3
sg10
I0
sg11
I1
sg12
I0
sg13
I-2
sg14
I0
sg15
I5
sg16
I-1
sg17
I0
sg18
I1
sg19
I-1
sg20
I-2
sg21
I-2
sg22
I-1
sg23
I-1
sg24
I3
ssg16
(dp38
g1
I-1
sg3
I-3
sg4
I-2
sg5
I-1
sg6
I-1
sg7
I-2
sg8
I-4
sg9
I-3
sg10
I-2
sg11
I-1
sg12
I-2
sg13
I-3
sg14
I-2
sg15
I-1
sg16
I7
sg17
I-1
sg18
I-2
sg19
I-1
sg20
I-4
sg21
I-2
sg22
I-3
sg23
I-2
sg24
I-1
ssg17
(dp39
g1
I1
sg3
I-1
sg4
I0
sg5
I0
sg6
I0
sg7
I0
sg8
I-2
sg9
I-2
sg10
I-1
sg11
I0
sg12
I-1
sg13
I-2
sg14
I1
sg15
I0
sg16
I-1
sg17
I4
sg18
I-1
sg19
I1
sg20
I-3
sg21
I-2
sg22
I-2
sg23
I0
sg24
I0
ssg18
(dp40
g1
I-1
sg3
I-3
sg4
I-1
sg5
I0
sg6
I-2
sg7
I-2
sg8
I-3
sg9
I-3
sg10
I0
sg11
I2
sg12
I-1
sg13
I-2
sg14
I0
sg15
I1
sg16
I-2
sg17
I-1
sg18
I5
sg19
I-1
sg20
I-3
sg21
I-3
sg22
I-2
sg23
I-1
sg24
I0
ssg19
(dp41
g1
I0
sg3
I-1
sg4
I-1
sg5
I-1
sg6
I-1
sg7
I-2
sg8
I-2
sg9
I-1
sg10
I-2
sg11
I-1
sg12
I-1
sg13
I-1
sg14
I0
sg15
I-1
sg16
I-1
sg17
I1
sg18
I-1
sg19
I5
sg20
I-2
sg21
I0
sg22
I-2
sg23
I0
sg24
I-1
ssg20
(dp42
g1
I-3
sg3
I-2
sg4
I-4
sg5
I-3
sg6
I-4
sg7
I-2
sg8
I1
sg9
I-3
sg10
I-2
sg11
I-3
sg12
I-1
sg13
I-2
sg14
I-4
sg15
I-2
sg16
I-4
sg17
I-3
sg18
I-3
sg19
I-2
sg20
I11
sg21
I-3
sg22
I2
sg23
I-2
sg24
I-3
ssg21
(dp43
g1
I0
sg3
I-1
sg4
I-3
sg5
I-2
sg6
I-3
sg7
I-3
sg8
I-1
sg9
I3
sg10
I-3
sg11
I-2
sg12
I1
sg13
I1
sg14
I-3
sg15
I-2
sg16
I-2
sg17
I-2
sg18
I-3
sg19
I0
sg20
I-3
sg21
I4
sg22
I-1
sg23
I-1
sg24
I-2
ssg22
(dp44
g1
I-2
sg3
I-2
sg4
I-3
sg5
I-2
sg6
I-3
sg7
I-3
sg8
I3
sg9
I-1
sg10
I2
sg11
I-2
sg12
I-1
sg13
I-1
sg14
I-2
sg15
I-1
sg16
I-3
sg17
I-2
sg18
I-2
sg19
I-2
sg20
I2
sg21
I-1
sg22
I7
sg23
I-1
sg24
I-2
ssg23
(dp45
g1
I0
sg3
I-2
sg4
I-1
sg5
I-1
sg6
I-1
sg7
I-1
sg8
I-1
sg9
I-1
sg10
I-1
sg11
I-1
sg12
I-1
sg13
I-1
sg14
I-1
sg15
I-1
sg16
I-2
sg17
I0
sg18
I-1
sg19
I0
sg20
I-2
sg21
I-1
sg22
I-1
sg23
I-1
sg24
I-1
ssg24
(dp46
g1
I-1
sg3
I-3
sg4
I1
sg5
I4
sg6
I1
sg7
I-2
sg8
I-3
sg9
I-3
sg10
I0
sg11
I1
sg12
I-1
sg13
I-3
sg14
I0
sg15
I3
sg16
I-1
sg17
I0
sg18
I0
sg19
I-1
sg20
I-3
sg21
I-2
sg22
I-2
sg23
I-1
sg24
I4
ss.