(dp0
S'A'
p1
(dp2
g1
I1
sS'C'
p3
I-1
sS'B'
p4
I-1
sS'E'
p5
I-1
sS'D'
p6
I-1
sS'G'
p7
I-1
sS'F'
p8
I-1
sS'I'
p9
I-1
sS'H'
p10
I-1
sS'K'
p11
I-1
sS'J'
p12
I-1
sS'M'
p13
I-1
sS'L'
p14
I-1
sS'O'
p15
I-1
sS'N'
p16
I-1
sS'Q'
p17
I-1
sS'P'
p18
I-1
sS'S'
p19
I-1
sS'R'
p20
I-1
sS'U'
p21
I-1
sS'T'
p22
I-1
sS'W'
p23
I-1
sS'V'
p24
I-1
sS'Y'
p25
I-1
sS'X'
p26
I-1
sS'Z'
p27
I-1
ssg3
(dp28
g1
I-1
sg3
I1
sg4
I-1
sg5
I-1
sg6
I-1
sg7
I-1
sg8
I-1
sg9
I-1
sg10
I-1
sg11
I-1
sg12
I-1
sg13
I-1
sg14
I-1
sg15
I-1
sg16
I-1
sg17
I-1
sg18
I-1
sg19
I-1
sg20
I-1
sg21
I-1
sg22
I-1
sg23
I-1
sg24
I-1
sg25
I-1
sg26
I-1
sg27
I-1
ssg4
(dp29
g1
I-1
sg3
I-1
sg4
I1
sg5
I-1
sg6
I-1
sg7
I-1
sg8
I-1
sg9
I-1
sg10
I-1
sg11
I-1
sg12
I-1
sg13
I-1
sg14
I-1
sg15
I-1
sg16
I-1
sg17
I-1
sg18
I-1
sg19
I-1
sg20
I-1
sg21
I-1
sg22
I-1
sg23
I-1
sg24
I-1
sg25
I-1
sg26
I-1
sg27
I-1
ssg5
(dp30
g1
I-1
sg3
I-1
sg4
I-1
sg5
I1
sg6
I-1
sg7
I-1
sg8
I-1
sg9
I-1
sg10
I-1
sg11
I-1
sg12
I-1
sg13
I-1
sg14
I-1
sg15
I-1
sg16
I-1
sg17
I-1
sg18
I-1
sg19
I-1
sg20
I-1
sg21
I-1
sg22
I-1
sg23
I-1
sg24
I-1
sg25
I-1
sg26
I-1
sg27
I-1
ssg6
(dp31
g1
I-1
sg3
I-1
sg4
I-1
sg5
I-1
sg6
I1
sg7
I-1
sg8
I-1
sg9
I-1
sg10
I-1
sg11
I-1
sg12
I-1
sg13
I-1
sg14
I-1
sg15
I-1
sg16
I-1
sg17
I-1
sg18
I-1
sg19
I-1
sg20
I-1
sg21
I-1
sg22
I-1
sg23
I-1
sg24
I-1
sg25
I-1
sg26
I-1
sg27
I-1
ssg7
(dp32
g1
I-1
sg3
I-1
sg4
I-1
sg5
I-1
sg6
I-1
sg7
I1
sg8
I-1
sg9
I-1
sg10
I-1
sg11
I-1
sg12
I-1
sg13
I-1
sg14
I-1
sg15
I-1
sg16
I-1
sg17
I-1
sg18
I-1
sg19
I-1
sg20
I-1
sg21
I-1
sg22
I-1
sg23
I-1
sg24
I-1
sg25
I-1
sg26
I-1
sg27
I-1
ssg8
(dp33
g1
I-1
sg3
I-1
sg4
I-1
sg5
I-1
sg6
I-1
sg7
I-1
sg8
I1
sg9
I-1
sg10
I-1
sg11
I-1
sg12
I-1
sg13
I-1
sg14
I-1
sg15
I-1
sg16
I-1
sg17
I-1
sg18
I-1
sg19
I-1
sg20
I-1
sg21
I-1
sg22
I-1
sg23
I-1
sg24
I-1
sg25
I-1
sg26
I-1
sg27
I-1
ssg9
(dp34
g1
I-1
sg3
I-1
sg4
I-1
sg5
I-1
sg6
I-1
sg7
I-1
sg8
I-1
sg9
I1
sg10
I-1
sg11
I-1
sg12
I-1
sg13
I-1
sg14
I-1
sg15
I-1
sg16
I-1
sg17
I-1
sg18
I-1
sg19
I-1
sg20
I-1
sg21
I-1
sg22
I-1
sg23
I-1
sg24
I-1
sg25
I-1
sg26
I-1
sg27
I-1
ssg10
(dp35
g1
I-1
sg3
I-1
sg4
I-1
sg5
I-1
sg6
I-1
sg7
I-1
sg8
I-1
sg9
I-1
sg10
I1
sg11
I-1
sg12
I-1
sg13
I-1
sg14
I-1
sg15
I-1
sg16
I-1
sg17
I-1
sg18
I-1
sg19
I-1
sg20
I-1
sg21
I-1
sg22
I-1
sg23
I-1
sg24
I-1
sg25
I-1
sg26
I-1
sg27
I-1
ssg11
(dp36
g1
I-1
sg3
I-1
sg4
I-1
sg5
I-1
sg6
I-1
sg7
I-1
sg8
I-1
sg9
I-1
sg10
I-1
sg11
I1
sg12
I-1
sg13
I-1
sg14
I-1
sg15
I-1
sg16
I-1
sg17
I-1
sg18
I-1
sg19
I-1
sg20
I-1
sg21
I-1
sg22
I-1
sg23
I-1
sg24
I-1
sg25
I-1
sg26
I-1
sg27
I-1
ssg12
(dp37
g1
I-1
sg3
I-1
sg4
I-1
sg5
I-1
sg6
I-1
sg7
I-1
sg8
I-1
sg9
I-1
sg10
I-1
sg11
I-1
sg12
I1
sg13
I-1
sg14
I-1
sg15
I-1
sg16
I-1
sg17
I-1
sg18
I-1
sg19
I-1
sg20
I-1
sg21
I-1
sg22
I-1
sg23
I-1
sg24
I-1
sg25
I-1
sg26
I-1
sg27
I-1
ssg13
(dp38
g1
I-1
sg3
I-1
sg4
I-1
sg5
I-1
sg6
I-1
sg7
I-1
sg8
I-1
sg9
I-1
sg10
I-1
sg11
I-1
sg12
I-1
sg13
I1
sg14
I-1
sg15
I-1
sg16
I-1
sg17
I-1
sg18
I-1
sg19
I-1
sg20
I-1
sg21
I-1
sg22
I-1
sg23
I-1
sg24
I-1
sg25
I-1
sg26
I-1
sg27
I-1
ssg14
(dp39
g1
I-1
sg3
I-1
sg4
I-1
sg5
I-1
sg6
I-1
sg7
I-1
sg8
I-1
sg9
I-1
sg10
I-1
sg11
I-1
sg12
I-1
sg13
I-1
sg14
I1
sg15
I-1
sg16
I-1
sg17
I-1
sg18
I-1
sg19
I-1
sg20
I-1
sg21
I-1
sg22
I-1
sg23
I-1
sg24
I-1
sg25
I-1
sg26
I-1
sg27
I-1
ssg15
(dp40
g1
I-1
sg3
I-1
sg4
I-1
sg5
I-1
sg6
I-1
sg7
I-1
sg8
I-1
sg9
I-1
sg10
I-1
sg11
I-1
sg12
I-1
sg13
I-1
sg14
I-1
sg15
I1
sg16
I-1
sg17
I-1
sg18
I-1
sg19
I-1
sg20
I-1
sg21
I-1
sg22
I-1
sg23
I-1
sg24
I-1
sg25
I-1
sg26
I-1
sg27
I-1
ssg16
(dp41
g1
I-1
sg3
I-1
sg4
I-1
sg5
I-1
sg6
I-1
sg7
I-1
sg8
I-1
sg9
I-1
sg10
I-1
sg11
I-1
sg12
I-1
sg13
I-1
sg14
I-1
sg15
I-1
sg16
I1
sg17
I-1
sg18
I-1
sg19
I-1
sg20
I-1
sg21
I-1
sg22
I-1
sg23
I-1
sg24
I-1
sg25
I-1
sg26
I-1
sg27
I-1
ssg17
(dp42
g1
I-1
sg3
I-1
sg4
I-1
sg5
I-1
sg6
I-1
sg7
I-1
sg8
I-1
sg9
I-1
sg10
I-1
sg11
I-1
sg12
I-1
sg13
I-1
sg14
I-1
sg15
I-1
sg16
I-1
sg17
I1
sg18
I-1
sg19
I-1
sg20
I-1
sg21
I-1
sg22
I-1
sg23
I-1
sg24
I-1
sg25
I-1
sg26
I-1
sg27
I-1
ssg18
(dp43
g1
I-1
sg3
I-1
sg4
I-1
sg5
I-1
sg6
I-1
sg7
I-1
sg8
I-1
sg9
I-1
sg10
I-1
sg11
I-1
sg12
I-1
sg13
I-1
sg14
I-1
sg15
I-1
sg16
I-1
sg17
I-1
sg18
I1
sg19
I-1
sg20
I-1
sg21
I-1
sg22
I-1
sg23
I-1
sg24
I-1
sg25
I-1
sg26
I-1
sg27
I-1
ssg19
(dp44
g1
I-1
sg3
I-1
sg4
I-1
sg5
I-1
sg6
I-1
sg7
I-1
sg8
I-1
sg9
I-1
sg10
I-1
sg11
I-1
sg12
I-1
sg13
I-1
sg14
I-1
sg15
I-1
sg16
I-1
sg17
I-1
sg18
I-1
sg19
I1
sg20
I-1
sg21
I-1
sg22
I-1
sg23
I-1
sg24
I-1
sg25
I-1
sg26
I-1
sg27
I-1
ssg20
(dp45
g1
I-1
sg3
I-1
sg4
I-1
sg5
I-1
sg6
I-1
sg7
I-1
sg8
I-1
sg9
I-1
sg10
I-1
sg11
I-1
sg12
I-1
sg13
I-1
sg14
I-1
sg15
I-1
sg16
I-1
sg17
I-1
sg18
I-1
sg19
I-1
sg20
I1
sg21
I-1
sg22
I-1
sg23
I-1
sg24
I-1
sg25
I-1
sg26
I-1
sg27
I-1
ssg21
(dp46
g1
I-1
sg3
I-1
sg4
I-1
sg5
I-1
sg6
I-1
sg7
I-1
sg8
I-1
sg9
I-1
sg10
I-1
sg11
I-1
sg12
I-1
sg13
I-1
sg14
I-1
sg15
I-1
sg16
I-1
sg17
I-1
sg18
I-1
sg19
I-1
sg20
I-1
sg21
I1
sg22
I-1
sg23
I-1
sg24
I-1
sg25
I-1
sg26
I-1
sg27
I-1
ssg22
(dp47
g1
I-1
sg3
I-1
sg4
I-1
sg5
I-1
sg6
I-1
sg7
I-1
sg8
I-1
sg9
I-1
sg10
I-1
sg11
I-1
sg12
I-1
sg13
I-1
sg14
I-1
sg15
I-1
sg16
I-1
sg17
I-1
sg18
I-1
sg19
I-1
sg20
I-1
sg21
I-1
sg22
I1
sg23
I-1
sg24
I-1
sg25
I-1
sg26
I-1
sg27
I-1
ssg23
(dp48
g1
I-1
sg3
I-1
sg4
I-1
sg5
I-1
sg6
I-1
sg7
I-1
sg8
I-1
sg9
I-1
sg10
I-1
sg11
I-1
sg12
I-1
sg13
I-1
sg14
I-1
sg15
I-1
sg16
I-1
sg17
I-1
sg18
I-1
sg19
I-1
sg20
I-1
sg21
I-1
sg22
I-1
sg23
I1
sg24
I-1
sg25
I-1
sg26
I-1
sg27
I-1
ssg24
(dp49
g1
I-1
sg3
I-1
sg4
I-1
sg5
I-1
sg6
I-1
sg7
I-1
sg8
I-1
sg9
I-1
sg10
I-1
sg11
I-1
sg12
I-1
sg13
I-1
sg14
I-1
sg15
I-1
sg16
I-1
sg17
I-1
sg18
I-1
sg19
I-1
sg20
I-1
sg21
I-1
sg22
I-1
sg23
I-1
sg24
I1
sg25
I-1
sg26
I-1
sg27
I-1
ssg25
(dp50
g1
I-1
sg3
I-1
sg4
I-1
sg5
I-1
sg6
I-1
sg7
I-1
sg8
I-1
sg9
I-1
sg10
I-1
sg11
I-1
sg12
I-1
sg13
I-1
sg14
I-1
sg15
I-1
sg16
I-1
sg17
I-1
sg18
I-1
sg19
I-1
sg20
I-1
sg21
I-1
sg22
I-1
sg23
I-1
sg24
I-1
sg25
I1
sg26
I-1
sg27
I-1
ssg26
(dp51
g1
I-1
sg3
I-1
sg4
I-1
sg5
I-1
sg6
I-1
sg7
I-1
sg8
I-1
sg9
I-1
sg10
I-1
sg11
I-1
sg12
I-1
sg13
I-1
sg14
I-1
sg15
I-1
sg16
I-1
sg17
I-1
sg18
I-1
sg19
I-1
sg20
I-1
sg21
I-1
sg22
I-1
sg23
I-1
sg24
I-1
sg25
I-1
sg26
I1
sg27
I-1
ssg27
(dp52
g1
I-1
sg3
I-1
sg4
I-1
sg5
I-1
sg6
I-1
sg7
I-1
sg8
I-1
sg9
I-1
sg10
I-1
sg11
I-1
sg12
I-1
sg13
I-1
sg14
I-1
sg15
I-1
sg16
I-1
sg17
I-1
sg18
I-1
sg19
I-1
sg20
I-1
sg21
I-1
sg22
I-1
sg23
I-1
sg24
I-1
sg25
I-1
sg26
I-1
sg27
I1
ss.