(dp0
S'A'
p1
(dp2
g1
I2
sS'C'
p3
I-2
sS'B'
p4
I0
sS'E'
p5
I0
sS'D'
p6
I0
sS'G'
p7
I1
sS'F'
p8
I-4
sS'I'
p9
I-1
sS'H'
p10
I-1
sS'K'
p11
I-1
sS'M'
p12
I-1
sS'L'
p13
I-2
sS'N'
p14
I0
sS'Q'
p15
I0
sS'P'
p16
I1
sS'S'
p17
I1
sS'R'
p18
I-2
sS'T'
p19
I1
sS'W'
p20
I-6
sS'V'
p21
I0
sS'Y'
p22
I-3
sS'Z'
p23
I0
ssg3
(dp24
g1
I-2
sg3
I12
sg4
I-4
sg5
I-5
sg6
I-5
sg7
I-3
sg8
I-4
sg9
I-2
sg10
I-3
sg11
I-5
sg12
I-5
sg13
I-6
sg14
I-4
sg15
I-5
sg16
I-3
sg17
I0
sg18
I-4
sg19
I-2
sg20
I-8
sg21
I-2
sg22
I0
sg23
I-5
ssg4
(dp25
g1
I0
sg3
I-4
sg4
I2
sg5
I2
sg6
I3
sg7
I0
sg8
I-5
sg9
I-2
sg10
I1
sg11
I1
sg12
I-2
sg13
I-3
sg14
I2
sg15
I1
sg16
I-1
sg17
I0
sg18
I-1
sg19
I0
sg20
I-5
sg21
I-2
sg22
I-3
sg23
I2
ssg5
(dp26
g1
I0
sg3
I-5
sg4
I2
sg5
I4
sg6
I3
sg7
I0
sg8
I-5
sg9
I-2
sg10
I1
sg11
I0
sg12
I-2
sg13
I-3
sg14
I1
sg15
I2
sg16
I-1
sg17
I0
sg18
I-1
sg19
I0
sg20
I-7
sg21
I-2
sg22
I-4
sg23
I3
ssg6
(dp27
g1
I0
sg3
I-5
sg4
I3
sg5
I3
sg6
I4
sg7
I1
sg8
I-6
sg9
I-2
sg10
I1
sg11
I0
sg12
I-3
sg13
I-4
sg14
I2
sg15
I2
sg16
I-1
sg17
I0
sg18
I-1
sg19
I0
sg20
I-7
sg21
I-2
sg22
I-4
sg23
I3
ssg7
(dp28
g1
I1
sg3
I-3
sg4
I0
sg5
I0
sg6
I1
sg7
I5
sg8
I-5
sg9
I-3
sg10
I-2
sg11
I-2
sg12
I-3
sg13
I-4
sg14
I0
sg15
I-1
sg16
I-1
sg17
I1
sg18
I-3
sg19
I0
sg20
I-7
sg21
I-1
sg22
I-5
sg23
I-1
ssg8
(dp29
g1
I-4
sg3
I-4
sg4
I-5
sg5
I-5
sg6
I-6
sg7
I-5
sg8
I9
sg9
I1
sg10
I-2
sg11
I-5
sg12
I0
sg13
I2
sg14
I-4
sg15
I-5
sg16
I-5
sg17
I-3
sg18
I-4
sg19
I-3
sg20
I0
sg21
I-1
sg22
I7
sg23
I-5
ssg9
(dp30
g1
I-1
sg3
I-2
sg4
I-2
sg5
I-2
sg6
I-2
sg7
I-3
sg8
I1
sg9
I5
sg10
I-2
sg11
I-2
sg12
I2
sg13
I2
sg14
I-2
sg15
I-2
sg16
I-2
sg17
I-1
sg18
I-2
sg19
I0
sg20
I-5
sg21
I4
sg22
I-1
sg23
I-2
ssg10
(dp31
g1
I-1
sg3
I-3
sg4
I1
sg5
I1
sg6
I1
sg7
I-2
sg8
I-2
sg9
I-2
sg10
I6
sg11
I0
sg12
I-2
sg13
I-2
sg14
I2
sg15
I3
sg16
I0
sg17
I-1
sg18
I2
sg19
I-1
sg20
I-3
sg21
I-2
sg22
I0
sg23
I2
ssg11
(dp32
g1
I-1
sg3
I-5
sg4
I1
sg5
I0
sg6
I0
sg7
I-2
sg8
I-5
sg9
I-2
sg10
I0
sg11
I5
sg12
I0
sg13
I-3
sg14
I1
sg15
I1
sg16
I-1
sg17
I0
sg18
I3
sg19
I0
sg20
I-3
sg21
I-2
sg22
I-4
sg23
I0
ssg12
(dp33
g1
I-1
sg3
I-5
sg4
I-2
sg5
I-2
sg6
I-3
sg7
I-3
sg8
I0
sg9
I2
sg10
I-2
sg11
I0
sg12
I6
sg13
I4
sg14
I-2
sg15
I-1
sg16
I-2
sg17
I-2
sg18
I0
sg19
I-1
sg20
I-4
sg21
I2
sg22
I-2
sg23
I-2
ssg13
(dp34
g1
I-2
sg3
I-6
sg4
I-3
sg5
I-3
sg6
I-4
sg7
I-4
sg8
I2
sg9
I2
sg10
I-2
sg11
I-3
sg12
I4
sg13
I6
sg14
I-3
sg15
I-2
sg16
I-3
sg17
I-3
sg18
I-3
sg19
I-2
sg20
I-2
sg21
I2
sg22
I-1
sg23
I-3
ssg14
(dp35
g1
I0
sg3
I-4
sg4
I2
sg5
I1
sg6
I2
sg7
I0
sg8
I-4
sg9
I-2
sg10
I2
sg11
I1
sg12
I-2
sg13
I-3
sg14
I2
sg15
I1
sg16
I-1
sg17
I1
sg18
I0
sg19
I0
sg20
I-4
sg21
I-2
sg22
I-2
sg23
I1
ssg15
(dp36
g1
I0
sg3
I-5
sg4
I1
sg5
I2
sg6
I2
sg7
I-1
sg8
I-5
sg9
I-2
sg10
I3
sg11
I1
sg12
I-1
sg13
I-2
sg14
I1
sg15
I4
sg16
I0
sg17
I-1
sg18
I1
sg19
I-1
sg20
I-5
sg21
I-2
sg22
I-4
sg23
I3
ssg16
(dp37
g1
I1
sg3
I-3
sg4
I-1
sg5
I-1
sg6
I-1
sg7
I-1
sg8
I-5
sg9
I-2
sg10
I0
sg11
I-1
sg12
I-2
sg13
I-3
sg14
I-1
sg15
I0
sg16
I6
sg17
I1
sg18
I0
sg19
I0
sg20
I-6
sg21
I-1
sg22
I-5
sg23
I0
ssg17
(dp38
g1
I1
sg3
I0
sg4
I0
sg5
I0
sg6
I0
sg7
I1
sg8
I-3
sg9
I-1
sg10
I-1
sg11
I0
sg12
I-2
sg13
I-3
sg14
I1
sg15
I-1
sg16
I1
sg17
I2
sg18
I0
sg19
I1
sg20
I-2
sg21
I-1
sg22
I-3
sg23
I0
ssg18
(dp39
g1
I-2
sg3
I-4
sg4
I-1
sg5
I-1
sg6
I-1
sg7
I-3
sg8
I-4
sg9
I-2
sg10
I2
sg11
I3
sg12
I0
sg13
I-3
sg14
I0
sg15
I1
sg16
I0
sg17
I0
sg18
I6
sg19
I-1
sg20
I2
sg21
I-2
sg22
I-4
sg23
I0
ssg19
(dp40
g1
I1
sg3
I-2
sg4
I0
sg5
I0
sg6
I0
sg7
I0
sg8
I-3
sg9
I0
sg10
I-1
sg11
I0
sg12
I-1
sg13
I-2
sg14
I0
sg15
I-1
sg16
I0
sg17
I1
sg18
I-1
sg19
I3
sg20
I-5
sg21
I0
sg22
I-3
sg23
I-1
ssg20
(dp41
g1
I-6
sg3
I-8
sg4
I-5
sg5
I-7
sg6
I-7
sg7
I-7
sg8
I0
sg9
I-5
sg10
I-3
sg11
I-3
sg12
I-4
sg13
I-2
sg14
I-4
sg15
I-5
sg16
I-6
sg17
I-2
sg18
I2
sg19
I-5
sg20
I17
sg21
I-6
sg22
I0
sg23
I-6
ssg21
(dp42
g1
I0
sg3
I-2
sg4
I-2
sg5
I-2
sg6
I-2
sg7
I-1
sg8
I-1
sg9
I4
sg10
I-2
sg11
I-2
sg12
I2
sg13
I2
sg14
I-2
sg15
I-2
sg16
I-1
sg17
I-1
sg18
I-2
sg19
I0
sg20
I-6
sg21
I4
sg22
I-2
sg23
I-2
ssg22
(dp43
g1
I-3
sg3
I0
sg4
I-3
sg5
I-4
sg6
I-4
sg7
I-5
sg8
I7
sg9
I-1
sg10
I0
sg11
I-4
sg12
I-2
sg13
I-1
sg14
I-2
sg15
I-4
sg16
I-5
sg17
I-3
sg18
I-4
sg19
I-3
sg20
I0
sg21
I-2
sg22
I10
sg23
I-4
ssg23
(dp44
g1
I0
sg3
I-5
sg4
I2
sg5
I3
sg6
I3
sg7
I-1
sg8
I-5
sg9
I-2
sg10
I2
sg11
I0
sg12
I-2
sg13
I-3
sg14
I1
sg15
I3
sg16
I0
sg17
I0
sg18
I0
sg19
I-1
sg20
I-6
sg21
I-2
sg22
I-4
sg23
I3
ss.